target datalayout = "e-m:e-p270:32:32-p271:32:32-p272:64:64-i64:64-i128:128-f80:128-n8:16:32:64-S128"
target triple = "x86_64-pc-linux-gnu"

%"class.absl::base_internal::SpinLock" = type { %"struct.std::atomic" }
%"struct.std::atomic" = type { %"struct.std::__atomic_base" }
%"struct.std::__atomic_base" = type { i32 }

@_ZN4absl13base_internal12_GLOBAL__N_130static_noncooperative_spinlockE = internal global { { i32 } } zeroinitializer, align 4
@_ZN4absl13base_internal12_GLOBAL__N_127static_cooperative_spinlockE = internal global { { i32 } } { { i32 } { i32 2 } }, align 4

; Function Attrs: mustprogress uwtable
define internal void @_ZN4absl13base_internal12_GLOBAL__N_140SpinLockWithThreads_DoesNotDeadlock_Test8TestBodyEv(ptr noundef nonnull align 8 dereferenceable(16) %0) unnamed_addr #6 align 2 {
  %2 = alloca ptr, align 8
  %3 = alloca %"class.absl::base_internal::SpinLock", align 4
  %4 = alloca %"class.absl::base_internal::SpinLock", align 4
  store ptr %0, ptr %2, align 8, !tbaa !313
  call void @llvm.lifetime.start.p0(i64 4, ptr %3) #3
  call void @_ZN4absl13base_internal8SpinLockC1ENS0_14SchedulingModeE(ptr noundef nonnull align 4 dereferenceable(4) %3, i32 noundef 1)
  call void @llvm.lifetime.start.p0(i64 4, ptr %4) #3
  call void @_ZN4absl13base_internal8SpinLockC1ENS0_14SchedulingModeE(ptr noundef nonnull align 4 dereferenceable(4) %4, i32 noundef 0)
  %5 = call noundef i32 @_ZN4absl13base_internal7NumCPUsEv()
  %6 = mul nsw i32 %5, 2
  call void @_ZZN4absl13base_internal12_GLOBAL__N_140SpinLockWithThreads_DoesNotDeadlock_Test8TestBodyEvEN6Helper12DeadlockTestEPNS0_8SpinLockEi(ptr noundef %3, i32 noundef %6)
  %7 = call noundef i32 @_ZN4absl13base_internal7NumCPUsEv()
  %8 = mul nsw i32 %7, 2
  call void @_ZZN4absl13base_internal12_GLOBAL__N_140SpinLockWithThreads_DoesNotDeadlock_Test8TestBodyEvEN6Helper12DeadlockTestEPNS0_8SpinLockEi(ptr noundef %4, i32 noundef %8)
  %9 = call noundef i32 @_ZN4absl13base_internal7NumCPUsEv()
  %10 = mul nsw i32 %9, 2
  call void @_ZZN4absl13base_internal12_GLOBAL__N_140SpinLockWithThreads_DoesNotDeadlock_Test8TestBodyEvEN6Helper12DeadlockTestEPNS0_8SpinLockEi(ptr noundef @_ZN4absl13base_internal12_GLOBAL__N_127static_cooperative_spinlockE, i32 noundef %10)
  %11 = call noundef i32 @_ZN4absl13base_internal7NumCPUsEv()
  %12 = mul nsw i32 %11, 2
  call void @_ZZN4absl13base_internal12_GLOBAL__N_140SpinLockWithThreads_DoesNotDeadlock_Test8TestBodyEvEN6Helper12DeadlockTestEPNS0_8SpinLockEi(ptr noundef @_ZN4absl13base_internal12_GLOBAL__N_130static_noncooperative_spinlockE, i32 noundef %12)
  call void @llvm.lifetime.end.p0(i64 4, ptr %4) #3
  call void @llvm.lifetime.end.p0(i64 4, ptr %3) #3
  ret void
}