; Function Attrs: mustprogress uwtable
define internal void @_ZN4absl13base_internal12_GLOBAL__N_140SpinLockWithThreads_DoesNotDeadlock_Test8TestBodyEv(ptr nonnull readnone align 8 captures(none) %0) unnamed_addr #4 align 2 {
  %2 = alloca %"class.absl::base_internal::SpinLock", align 4
  %3 = alloca %"class.absl::base_internal::SpinLock", align 4
  call void @llvm.lifetime.start.p0(i64 4, ptr nonnull %2) #20
  call void @_ZN4absl13base_internal8SpinLockC1ENS0_14SchedulingModeE(ptr noundef nonnull align 4 dereferenceable(4) %2, i32 noundef 1)
  call void @llvm.lifetime.start.p0(i64 4, ptr nonnull %3) #20
  call void @_ZN4absl13base_internal8SpinLockC1ENS0_14SchedulingModeE(ptr noundef nonnull align 4 dereferenceable(4) %3, i32 noundef 0)
  %4 = call noundef i32 @_ZN4absl13base_internal7NumCPUsEv()
  %5 = shl nsw i32 %4, 1
  call fastcc void @_ZZN4absl13base_internal12_GLOBAL__N_140SpinLockWithThreads_DoesNotDeadlock_Test8TestBodyEvEN6Helper12DeadlockTestEPNS0_8SpinLockEi(ptr noundef nonnull %2, i32 noundef %5)
  %6 = call noundef i32 @_ZN4absl13base_internal7NumCPUsEv()
  %7 = shl nsw i32 %6, 1
  call fastcc void @_ZZN4absl13base_internal12_GLOBAL__N_140SpinLockWithThreads_DoesNotDeadlock_Test8TestBodyEvEN6Helper12DeadlockTestEPNS0_8SpinLockEi(ptr noundef nonnull %3, i32 noundef %7)
  %8 = call noundef i32 @_ZN4absl13base_internal7NumCPUsEv()
  %9 = shl nsw i32 %8, 1
  call fastcc void @_ZZN4absl13base_internal12_GLOBAL__N_140SpinLockWithThreads_DoesNotDeadlock_Test8TestBodyEvEN6Helper12DeadlockTestEPNS0_8SpinLockEi(ptr noundef nonnull @_ZN4absl13base_internal12_GLOBAL__N_127static_cooperative_spinlockE, i32 noundef %9)
  %10 = call noundef i32 @_ZN4absl13base_internal7NumCPUsEv()
  %11 = shl nsw i32 %10, 1
  call fastcc void @_ZZN4absl13base_internal12_GLOBAL__N_140SpinLockWithThreads_DoesNotDeadlock_Test8TestBodyEvEN6Helper12DeadlockTestEPNS0_8SpinLockEi(ptr noundef nonnull @_ZN4absl13base_internal12_GLOBAL__N_130static_noncooperative_spinlockE, i32 noundef %11)
  call void @llvm.lifetime.end.p0(i64 4, ptr nonnull %3) #20
  call void @llvm.lifetime.end.p0(i64 4, ptr nonnull %2) #20
  ret void
}